(dp0
S'model_params'
p1
(dp2
S'dropout_rate'
p3
F0.5
sS'use_crf'
p4
I01
sS'clip'
p5
I10
sS'embed_params'
p6
(dp7
S'f1'
p8
(dp9
S'path'
p10
S'data/embed/f1_embed.pkl'
p11
sS'dropout_rate'
p12
F0.3
sS'shape'
p13
(lp14
I5145
aI64
asS'path_pre_train'
p15
S'data/embedding.txt'
p16
sssS'learning_rate'
p17
F0.002
sS'path_model'
p18
S'model'
p19
sS'batch_size'
p20
I64
sS'l2_rate'
p21
F0.01
sS'sequence_length'
p22
I200
sS'bilstm_params'
p23
(dp24
S'num_units'
p25
I256
sS'num_layers'
p26
I1
ssS'rnn_unit'
p27
S'lstm'
p28
sS'nb_classes'
p29
I5
sS'max_patience'
p30
I20
sS'nb_epoch'
p31
I200
sS'feature_names'
p32
(lp33
S'f1'
p34
asS'dev_size'
p35
F0.1
ssS'data_params'
p36
(dp37
S'path_result'
p38
S'./data/sample_test_result.txt'
p39
sS'sep'
p40
S'table'
p41
sS'path_train'
p42
S'data/format_file.txt'
p43
sS'path_test'
p44
S'./data/sample_test.txt'
p45
sS'voc_params'
p46
(dp47
S'f1'
p48
(dp49
S'min_count'
p50
I0
sS'path'
p51
S'data/voc/f1.voc.pkl'
p52
ssS'label'
p53
(dp54
S'min_count'
p55
I0
sS'path'
p56
S'data/voc/label.voc.pkl'
p57
ssssS'model'
p58
S'NER'
p59
s.